; Function Attrs: nounwind uwtable
define dso_local i32 @locate_var_of_level(ptr noundef %0, i32 noundef %1) local_unnamed_addr #0 {
  %3 = alloca %struct.locate_var_of_level_context, align 4
  call void @llvm.lifetime.start.p0(i64 8, ptr nonnull %3) #6
  store i32 -1, ptr %3, align 4
  %4 = getelementptr inbounds nuw i8, ptr %3, i64 4
  store i32 %1, ptr %4, align 4
  %5 = call zeroext i1 @query_or_expression_tree_walker_impl(ptr noundef %0, ptr noundef nonnull @locate_var_of_level_walker, ptr noundef nonnull %3, i32 noundef 0) #6
  %6 = load i32, ptr %3, align 4
  call void @llvm.lifetime.end.p0(i64 8, ptr nonnull %3) #6
  ret i32 %6
}